; Function Attrs: nounwind uwtable
define ptr @l_Lean_Compiler_LCNF_Arg_forFVarM___rarg(ptr noundef %0, ptr noundef %1, ptr noundef %2) #0 {
  %4 = ptrtoint ptr %2 to i64
  %5 = and i64 %4, 1
  %.not.i44 = icmp eq i64 %5, 0
  br i1 %.not.i44, label %9, label %6

6:                                                ; preds = %3
  %7 = lshr i64 %4, 1
  %8 = trunc i64 %7 to i32
  br label %lean_obj_tag.exit

9:                                                ; preds = %3
  %10 = getelementptr i8, ptr %2, i64 4
  %.val.i = load i32, ptr %10, align 4
  %11 = lshr i32 %.val.i, 24
  br label %lean_obj_tag.exit

lean_obj_tag.exit:                                ; preds = %6, %9
  %.0.i = phi i32 [ %8, %6 ], [ %11, %9 ]
  switch i32 %.0.i, label %87 [
    i32 0, label %12
    i32 1, label %59
  ]

12:                                               ; preds = %lean_obj_tag.exit
  %13 = ptrtoint ptr %1 to i64
  %14 = and i64 %13, 1
  %.not58 = icmp eq i64 %14, 0
  br i1 %.not58, label %15, label %lean_dec.exit33

15:                                               ; preds = %12
  %16 = load i32, ptr %1, align 4, !tbaa !8
  %17 = icmp sgt i32 %16, 1
  br i1 %17, label %18, label %20, !prof !13

18:                                               ; preds = %15
  %19 = add nsw i32 %16, -1
  store i32 %19, ptr %1, align 4, !tbaa !8
  br label %lean_dec.exit33

20:                                               ; preds = %15
  %.not.i = icmp eq i32 %16, 0
  br i1 %.not.i, label %lean_dec.exit33, label %21

21:                                               ; preds = %20
  tail call void @lean_dec_ref_cold(ptr noundef nonnull %1) #4
  br label %lean_dec.exit33

lean_dec.exit33:                                  ; preds = %21, %20, %18, %12
  %22 = getelementptr inbounds nuw i8, ptr %0, i64 8
  %23 = load ptr, ptr %22, align 8, !tbaa !4
  %24 = ptrtoint ptr %23 to i64
  %25 = and i64 %24, 1
  %.not59 = icmp eq i64 %25, 0
  br i1 %.not59, label %26, label %lean_inc.exit28

26:                                               ; preds = %lean_dec.exit33
  %.val.i45 = load i32, ptr %23, align 4, !tbaa !8
  %27 = icmp sgt i32 %.val.i45, 0
  br i1 %27, label %28, label %30, !prof !13

28:                                               ; preds = %26
  %29 = add nuw i32 %.val.i45, 1
  store i32 %29, ptr %23, align 4, !tbaa !8
  br label %lean_inc.exit28

30:                                               ; preds = %26
  %.not.i46 = icmp eq i32 %.val.i45, 0
  br i1 %.not.i46, label %lean_inc.exit28, label %31

31:                                               ; preds = %30
  tail call void @lean_inc_ref_cold(ptr noundef nonnull %23) #4
  br label %lean_inc.exit28

lean_inc.exit28:                                  ; preds = %31, %30, %28, %lean_dec.exit33
  %32 = ptrtoint ptr %0 to i64
  %33 = and i64 %32, 1
  %.not60 = icmp eq i64 %33, 0
  br i1 %.not60, label %34, label %lean_dec.exit32

34:                                               ; preds = %lean_inc.exit28
  %35 = load i32, ptr %0, align 4, !tbaa !8
  %36 = icmp sgt i32 %35, 1
  br i1 %36, label %37, label %39, !prof !13

37:                                               ; preds = %34
  %38 = add nsw i32 %35, -1
  store i32 %38, ptr %0, align 4, !tbaa !8
  br label %lean_dec.exit32

39:                                               ; preds = %34
  %.not.i34 = icmp eq i32 %35, 0
  br i1 %.not.i34, label %lean_dec.exit32, label %40

40:                                               ; preds = %39
  tail call void @lean_dec_ref_cold(ptr noundef nonnull %0) #4
  br label %lean_dec.exit32

lean_dec.exit32:                                  ; preds = %40, %39, %37, %lean_inc.exit28
  %41 = getelementptr inbounds nuw i8, ptr %23, i64 16
  %42 = load ptr, ptr %41, align 8, !tbaa !4
  %43 = ptrtoint ptr %42 to i64
  %44 = and i64 %43, 1
  %.not61 = icmp eq i64 %44, 0
  br i1 %.not61, label %45, label %lean_inc.exit27

45:                                               ; preds = %lean_dec.exit32
  %.val.i47 = load i32, ptr %42, align 4, !tbaa !8
  %46 = icmp sgt i32 %.val.i47, 0
  br i1 %46, label %47, label %49, !prof !13

47:                                               ; preds = %45
  %48 = add nuw i32 %.val.i47, 1
  store i32 %48, ptr %42, align 4, !tbaa !8
  br label %lean_inc.exit27

49:                                               ; preds = %45
  %.not.i48 = icmp eq i32 %.val.i47, 0
  br i1 %.not.i48, label %lean_inc.exit27, label %50

50:                                               ; preds = %49
  tail call void @lean_inc_ref_cold(ptr noundef nonnull %42) #4
  br label %lean_inc.exit27

lean_inc.exit27:                                  ; preds = %50, %49, %47, %lean_dec.exit32
  br i1 %.not59, label %51, label %lean_dec.exit31

51:                                               ; preds = %lean_inc.exit27
  %52 = load i32, ptr %23, align 4, !tbaa !8
  %53 = icmp sgt i32 %52, 1
  br i1 %53, label %54, label %56, !prof !13

54:                                               ; preds = %51
  %55 = add nsw i32 %52, -1
  store i32 %55, ptr %23, align 4, !tbaa !8
  br label %lean_dec.exit31

56:                                               ; preds = %51
  %.not.i36 = icmp eq i32 %52, 0
  br i1 %.not.i36, label %lean_dec.exit31, label %57

57:                                               ; preds = %56
  tail call void @lean_dec_ref_cold(ptr noundef nonnull %23) #4
  br label %lean_dec.exit31

lean_dec.exit31:                                  ; preds = %57, %56, %54, %lean_inc.exit27
  %58 = tail call ptr @lean_apply_2(ptr noundef %42, ptr noundef nonnull inttoptr (i64 1 to ptr), ptr noundef nonnull inttoptr (i64 1 to ptr)) #4
  br label %106

59:                                               ; preds = %lean_obj_tag.exit
  %60 = ptrtoint ptr %0 to i64
  %61 = and i64 %60, 1
  %.not = icmp eq i64 %61, 0
  br i1 %.not, label %62, label %lean_dec.exit30

62:                                               ; preds = %59
  %63 = load i32, ptr %0, align 4, !tbaa !8
  %64 = icmp sgt i32 %63, 1
  br i1 %64, label %65, label %67, !prof !13

65:                                               ; preds = %62
  %66 = add nsw i32 %63, -1
  store i32 %66, ptr %0, align 4, !tbaa !8
  br label %lean_dec.exit30

67:                                               ; preds = %62
  %.not.i38 = icmp eq i32 %63, 0
  br i1 %.not.i38, label %lean_dec.exit30, label %68

68:                                               ; preds = %67
  tail call void @lean_dec_ref_cold(ptr noundef nonnull %0) #4
  br label %lean_dec.exit30

lean_dec.exit30:                                  ; preds = %68, %67, %65, %59
  %69 = getelementptr inbounds nuw i8, ptr %2, i64 8
  %70 = load ptr, ptr %69, align 8, !tbaa !4
  %71 = ptrtoint ptr %70 to i64
  %72 = and i64 %71, 1
  %.not56 = icmp eq i64 %72, 0
  br i1 %.not56, label %73, label %lean_inc.exit26

73:                                               ; preds = %lean_dec.exit30
  %.val.i50 = load i32, ptr %70, align 4, !tbaa !8
  %74 = icmp sgt i32 %.val.i50, 0
  br i1 %74, label %75, label %77, !prof !13

75:                                               ; preds = %73
  %76 = add nuw i32 %.val.i50, 1
  store i32 %76, ptr %70, align 4, !tbaa !8
  br label %lean_inc.exit26

77:                                               ; preds = %73
  %.not.i51 = icmp eq i32 %.val.i50, 0
  br i1 %.not.i51, label %lean_inc.exit26, label %78

78:                                               ; preds = %77
  tail call void @lean_inc_ref_cold(ptr noundef nonnull %70) #4
  br label %lean_inc.exit26

lean_inc.exit26:                                  ; preds = %78, %77, %75, %lean_dec.exit30
  br i1 %.not.i44, label %79, label %lean_dec.exit29

79:                                               ; preds = %lean_inc.exit26
  %80 = load i32, ptr %2, align 4, !tbaa !8
  %81 = icmp sgt i32 %80, 1
  br i1 %81, label %82, label %84, !prof !13

82:                                               ; preds = %79
  %83 = add nsw i32 %80, -1
  store i32 %83, ptr %2, align 4, !tbaa !8
  br label %lean_dec.exit29

84:                                               ; preds = %79
  %.not.i40 = icmp eq i32 %80, 0
  br i1 %.not.i40, label %lean_dec.exit29, label %85

85:                                               ; preds = %84
  tail call void @lean_dec_ref_cold(ptr noundef nonnull %2) #4
  br label %lean_dec.exit29

lean_dec.exit29:                                  ; preds = %85, %84, %82, %lean_inc.exit26
  %86 = tail call ptr @lean_apply_1(ptr noundef %1, ptr noundef %70) #4
  br label %106

87:                                               ; preds = %lean_obj_tag.exit
  %88 = getelementptr inbounds nuw i8, ptr %2, i64 8
  %89 = load ptr, ptr %88, align 8, !tbaa !4
  %90 = ptrtoint ptr %89 to i64
  %91 = and i64 %90, 1
  %.not62 = icmp eq i64 %91, 0
  br i1 %.not62, label %92, label %lean_inc.exit

92:                                               ; preds = %87
  %.val.i53 = load i32, ptr %89, align 4, !tbaa !8
  %93 = icmp sgt i32 %.val.i53, 0
  br i1 %93, label %94, label %96, !prof !13

94:                                               ; preds = %92
  %95 = add nuw i32 %.val.i53, 1
  store i32 %95, ptr %89, align 4, !tbaa !8
  br label %lean_inc.exit

96:                                               ; preds = %92
  %.not.i54 = icmp eq i32 %.val.i53, 0
  br i1 %.not.i54, label %lean_inc.exit, label %97

97:                                               ; preds = %96
  tail call void @lean_inc_ref_cold(ptr noundef nonnull %89) #4
  br label %lean_inc.exit

lean_inc.exit:                                    ; preds = %97, %96, %94, %87
  br i1 %.not.i44, label %98, label %lean_dec.exit

98:                                               ; preds = %lean_inc.exit
  %99 = load i32, ptr %2, align 4, !tbaa !8
  %100 = icmp sgt i32 %99, 1
  br i1 %100, label %101, label %103, !prof !13

101:                                              ; preds = %98
  %102 = add nsw i32 %99, -1
  store i32 %102, ptr %2, align 4, !tbaa !8
  br label %lean_dec.exit

103:                                              ; preds = %98
  %.not.i42 = icmp eq i32 %99, 0
  br i1 %.not.i42, label %lean_dec.exit, label %104

104:                                              ; preds = %103
  tail call void @lean_dec_ref_cold(ptr noundef nonnull %2) #4
  br label %lean_dec.exit

lean_dec.exit:                                    ; preds = %104, %103, %101, %lean_inc.exit
  %105 = tail call ptr @l_Lean_Compiler_LCNF_Expr_forFVarM___rarg(ptr noundef %0, ptr noundef %1, ptr noundef %89)
  br label %106

106:                                              ; preds = %lean_dec.exit, %lean_dec.exit29, %lean_dec.exit31
  %.0 = phi ptr [ %105, %lean_dec.exit ], [ %86, %lean_dec.exit29 ], [ %58, %lean_dec.exit31 ]
  ret ptr %.0
}